; Function Attrs: mustprogress nofree norecurse nosync nounwind willreturn memory(read, inaccessiblemem: none) uwtable
define i64 @_ZNK10OpenSubdiv6v3_6_03Far10PatchTable22getPatchFVarPatchParamEii(ptr nocapture noundef nonnull readonly align 8 dereferenceable(273) %0, i32 noundef %1, i32 noundef %2) local_unnamed_addr #6 align 2 {
  %4 = getelementptr inbounds nuw i8, ptr %0, i64 176
  %5 = sext i32 %2 to i64
  %6 = load ptr, ptr %4, align 8
  %7 = getelementptr inbounds %"struct.OpenSubdiv::v3_6_0::Far::PatchTable::FVarPatchChannel", ptr %6, i64 %5, i32 5
  %8 = sext i32 %1 to i64
  %9 = load ptr, ptr %7, align 8
  %10 = getelementptr inbounds %"struct.OpenSubdiv::v3_6_0::Far::PatchParam", ptr %9, i64 %8
  %.sroa.0.0.copyload = load i64, ptr %10, align 4
  ret i64 %.sroa.0.0.copyload
}